target datalayout = "e-m:e-p270:32:32-p271:32:32-p272:64:64-i64:64-i128:128-f80:128-n8:16:32:64-S128"
target triple = "x86_64-pc-linux-gnu"

; Function Attrs: null_pointer_is_valid sspstrong uwtable
define i32 @oid_string2encoded(ptr noundef %0, ptr noundef %1, ptr noundef %2) #0 {
  %4 = alloca i32, align 4
  %5 = alloca ptr, align 8
  %6 = alloca ptr, align 8
  %7 = alloca ptr, align 8
  %8 = alloca ptr, align 8
  %9 = alloca i32, align 4
  %10 = alloca i32, align 4
  %11 = alloca i32, align 4
  store ptr %0, ptr %5, align 8
  store ptr %1, ptr %6, align 8
  store ptr %2, ptr %7, align 8
  call void @llvm.lifetime.start.p0(i64 8, ptr %8) #6
  call void @llvm.lifetime.start.p0(i64 4, ptr %9) #6
  call void @llvm.lifetime.start.p0(i64 4, ptr %10) #6
  %12 = load ptr, ptr %6, align 8
  %13 = call i32 @oid_string2subid(ptr noundef null, ptr noundef %12, ptr noundef %8)
  store i32 %13, ptr %9, align 4
  %14 = icmp ne i32 %13, 0
  br i1 %14, label %15, label %25

15:                                               ; preds = %3
  %16 = load ptr, ptr %5, align 8
  %17 = load i32, ptr %9, align 4
  %18 = load ptr, ptr %8, align 8
  %19 = load ptr, ptr %7, align 8
  %20 = call i32 @oid_subid2encoded(ptr noundef %16, i32 noundef %17, ptr noundef %18, ptr noundef %19)
  store i32 %20, ptr %10, align 4
  %21 = icmp ne i32 %20, 0
  br i1 %21, label %22, label %25

22:                                               ; preds = %15
  %23 = load ptr, ptr %8, align 8
  call void @wmem_free(ptr noundef null, ptr noundef %23)
  %24 = load i32, ptr %10, align 4
  store i32 %24, ptr %4, align 4
  store i32 1, ptr %11, align 4
  br label %27

25:                                               ; preds = %15, %3
  %26 = load ptr, ptr %8, align 8
  call void @wmem_free(ptr noundef null, ptr noundef %26)
  store i32 0, ptr %4, align 4
  store i32 1, ptr %11, align 4
  br label %27

27:                                               ; preds = %25, %22
  call void @llvm.lifetime.end.p0(i64 4, ptr %10) #6
  call void @llvm.lifetime.end.p0(i64 4, ptr %9) #6
  call void @llvm.lifetime.end.p0(i64 8, ptr %8) #6
  %28 = load i32, ptr %4, align 4
  ret i32 %28
}