; Function Attrs: null_pointer_is_valid sspstrong uwtable
define i32 @oid_string2encoded(ptr noundef %0, ptr noundef %1, ptr noundef writeonly captures(none) %2) local_unnamed_addr #0 {
  %4 = alloca ptr, align 8
  call void @llvm.lifetime.start.p0(i64 8, ptr nonnull %4) #10
  %5 = call i32 @oid_string2subid(ptr noundef null, ptr noundef %1, ptr noundef nonnull %4)
  %.not = icmp eq i32 %5, 0
  %.pre = load ptr, ptr %4, align 8
  br i1 %.not, label %8, label %6

6:                                                ; preds = %3
  %7 = tail call i32 @oid_subid2encoded(ptr noundef %0, i32 noundef %5, ptr noundef %.pre, ptr noundef %2)
  %.not7 = icmp eq i32 %7, 0
  br i1 %.not7, label %8, label %9

8:                                                ; preds = %6, %3
  br label %9

9:                                                ; preds = %6, %8
  %.0 = phi i32 [ 0, %8 ], [ %7, %6 ]
  tail call void @wmem_free(ptr noundef null, ptr noundef %.pre)
  call void @llvm.lifetime.end.p0(i64 8, ptr nonnull %4) #10
  ret i32 %.0
}